; Function Attrs: nounwind uwtable
define hidden void @file_error(ptr nocapture noundef %0, i32 noundef %1, ptr noundef %2, ...) local_unnamed_addr #2 {
  %4 = alloca [1 x %struct.__va_list_tag], align 16
  call void @llvm.va_start(ptr nonnull %4)
  %5 = getelementptr inbounds i8, ptr %0, i64 72
  %6 = load i32, ptr %5, align 8
  %7 = and i32 %6, 1
  %.not.i = icmp eq i32 %7, 0
  br i1 %.not.i, label %8, label %file_error_core.exit

8:                                                ; preds = %3
  %9 = getelementptr inbounds i8, ptr %0, i64 32
  %10 = load ptr, ptr %9, align 8
  %.not19.i = icmp eq ptr %10, null
  br i1 %.not19.i, label %15, label %11

11:                                               ; preds = %8
  %12 = load i8, ptr %10, align 1
  %.not20.i = icmp eq i8 %12, 0
  br i1 %.not20.i, label %15, label %13

13:                                               ; preds = %11
  %14 = call i32 (ptr, ptr, ...) @file_printf(ptr noundef nonnull %0, ptr noundef nonnull @.str.35), !range !4
  br label %15

15:                                               ; preds = %13, %11, %8
  %16 = call i32 @file_vprintf(ptr noundef nonnull %0, ptr noundef %2, ptr noundef nonnull %4), !range !4
  %17 = icmp sgt i32 %1, 0
  br i1 %17, label %18, label %21

18:                                               ; preds = %15
  %19 = call ptr @strerror(i32 noundef %1) #17
  %20 = call i32 (ptr, ptr, ...) @file_printf(ptr noundef nonnull %0, ptr noundef nonnull @.str.36, ptr noundef %19), !range !4
  br label %21

21:                                               ; preds = %18, %15
  %22 = load i32, ptr %5, align 8
  %23 = or i32 %22, 1
  store i32 %23, ptr %5, align 8
  %24 = getelementptr inbounds i8, ptr %0, i64 64
  store i32 %1, ptr %24, align 8
  br label %file_error_core.exit

file_error_core.exit:                             ; preds = %3, %21
  call void @llvm.va_end(ptr nonnull %4)
  ret void
}